target datalayout = "e-m:e-p270:32:32-p271:32:32-p272:64:64-i64:64-i128:128-f80:128-n8:16:32:64-S128"
target triple = "x86_64-pc-linux-gnu"

%"class.clang::SourceLocation" = type { i32 }
%"struct.clang::ASTTemplateKWAndArgsInfo" = type { %"class.clang::SourceLocation", %"class.clang::SourceLocation", %"class.clang::SourceLocation", i32 }

; Function Attrs: mustprogress nounwind uwtable
define linkonce_odr hidden void @_ZN5clang14SourceLocationC2Ev(ptr noundef nonnull align 4 dereferenceable(4) %0) unnamed_addr #0 comdat align 2 {
  %2 = alloca ptr, align 8
  store ptr %0, ptr %2, align 8
  %3 = load ptr, ptr %2, align 8
  %4 = getelementptr inbounds nuw %"class.clang::SourceLocation", ptr %3, i32 0, i32 0
  store i32 0, ptr %4, align 4
  ret void
}

; Function Attrs: mustprogress nounwind uwtable
define dso_local void @_ZN5clang24ASTTemplateKWAndArgsInfo14initializeFromENS_14SourceLocationE(ptr noundef nonnull align 8 dereferenceable(16) %0, i32 %1) #0 align 2 {
  %3 = alloca %"class.clang::SourceLocation", align 4
  %4 = alloca ptr, align 8
  %5 = alloca %"class.clang::SourceLocation", align 4
  %6 = alloca %"class.clang::SourceLocation", align 4
  %7 = getelementptr inbounds nuw %"class.clang::SourceLocation", ptr %3, i32 0, i32 0
  store i32 %1, ptr %7, align 4
  store ptr %0, ptr %4, align 8
  %8 = load ptr, ptr %4, align 8
  call void @llvm.memset.p0.i64(ptr align 4 %5, i8 0, i64 4, i1 false)
  call void @_ZN5clang14SourceLocationC2Ev(ptr noundef nonnull align 4 dereferenceable(4) %5) #10
  %9 = getelementptr inbounds nuw %"struct.clang::ASTTemplateKWAndArgsInfo", ptr %8, i32 0, i32 0
  call void @llvm.memcpy.p0.p0.i64(ptr align 8 %9, ptr align 4 %5, i64 4, i1 false)
  call void @llvm.memset.p0.i64(ptr align 4 %6, i8 0, i64 4, i1 false)
  call void @_ZN5clang14SourceLocationC2Ev(ptr noundef nonnull align 4 dereferenceable(4) %6) #10
  %10 = getelementptr inbounds nuw %"struct.clang::ASTTemplateKWAndArgsInfo", ptr %8, i32 0, i32 1
  call void @llvm.memcpy.p0.p0.i64(ptr align 4 %10, ptr align 4 %6, i64 4, i1 false)
  %11 = getelementptr inbounds nuw %"struct.clang::ASTTemplateKWAndArgsInfo", ptr %8, i32 0, i32 2
  call void @llvm.memcpy.p0.p0.i64(ptr align 8 %11, ptr align 4 %3, i64 4, i1 false)
  %12 = getelementptr inbounds nuw %"struct.clang::ASTTemplateKWAndArgsInfo", ptr %8, i32 0, i32 3
  store i32 0, ptr %12, align 4
  ret void
}