; Function Attrs: mustprogress nofree norecurse nosync nounwind willreturn memory(argmem: write) uwtable
define dso_local void @_ZN5clang24ASTTemplateKWAndArgsInfo14initializeFromENS_14SourceLocationE(ptr nocapture noundef nonnull writeonly align 8 dereferenceable(16) %0, i32 %1) local_unnamed_addr #0 align 2 {
  store i32 0, ptr %0, align 8
  %3 = getelementptr inbounds nuw i8, ptr %0, i64 4
  store i32 0, ptr %3, align 4
  %4 = getelementptr inbounds nuw i8, ptr %0, i64 8
  store i32 %1, ptr %4, align 8
  %5 = getelementptr inbounds nuw i8, ptr %0, i64 12
  store i32 0, ptr %5, align 4
  ret void
}